Certificate:
    Data:
        Version: 3 (0x2)
        Serial Number:
            7f:8b:ad:43:8c:08:ed:ef:8d:45:4d:e7:90:c2:5d:6c
        Signature Algorithm: sha256WithRSAEncryption
        Issuer: CN=Projet-vpn
        Validity
            Not Before: Aug  4 12:55:35 2025 GMT
            Not After : Nov  7 12:55:35 2027 GMT
        Subject: CN=Projet-vpn
        Subject Public Key Info:
            Public Key Algorithm: rsaEncryption
                Public-Key: (2048 bit)
                Modulus:
                    00:92:33:a7:64:b1:72:f1:9f:1a:6b:98:db:ea:26:
                    c7:b9:c2:a2:51:b9:86:e6:63:b4:ba:7f:77:6e:9a:
                    50:ea:42:2e:e8:70:64:3c:d4:02:de:f9:6f:68:6a:
                    94:d5:dc:2c:72:6a:3c:09:ab:c9:e8:cd:6a:aa:65:
                    44:4a:09:d9:1b:d1:04:43:9c:c0:2d:d5:39:99:b9:
                    ee:7a:8e:8b:53:66:7c:22:7e:e2:d3:21:f3:58:a2:
                    a9:c6:03:08:62:34:9c:86:7c:e0:51:26:6a:c2:f5:
                    ef:da:4e:64:2c:0c:0a:2b:80:85:6f:f8:b3:4f:b4:
                    18:1c:74:2e:a0:52:ad:89:aa:b8:10:c4:0e:02:fd:
                    88:c6:78:4a:4e:57:51:d5:9c:64:6b:72:0f:59:3d:
                    91:c4:6e:4d:73:7b:3d:f3:2a:47:58:1c:15:24:25:
                    27:8a:be:2d:46:b4:0a:b6:98:f3:32:e1:7b:a5:b6:
                    cd:b6:fc:0c:cf:8e:ad:5b:e7:7c:58:a2:eb:79:4f:
                    f2:f0:f2:9d:69:5c:a2:ee:30:68:2b:65:1a:d1:82:
                    72:de:34:51:af:f9:8f:3a:b3:ab:5f:19:6e:37:78:
                    41:33:13:b8:66:cc:d4:69:08:45:a8:ac:d9:3a:f2:
                    d2:e7:56:b6:6d:25:c5:36:1e:c1:04:35:90:6f:71:
                    92:81
                Exponent: 65537 (0x10001)
        X509v3 extensions:
            X509v3 Basic Constraints: 
                CA:FALSE
            X509v3 Subject Key Identifier: 
                44:C6:86:56:27:08:11:B5:F7:BF:0A:3E:0C:19:76:61:3F:0B:71:8A
            X509v3 Authority Key Identifier: 
                keyid:83:01:D2:F0:03:E3:58:82:FE:6E:CD:68:E1:77:C5:CB:D3:D9:FB:51
                DirName:/CN=Projet-vpn
                serial:6B:97:A4:CC:15:BA:D5:AC:10:1A:FC:BB:DB:20:45:EC:AE:A7:9C:2D
            X509v3 Extended Key Usage: 
                TLS Web Client Authentication
            X509v3 Key Usage: 
                Digital Signature
    Signature Algorithm: sha256WithRSAEncryption
    Signature Value:
        77:2f:f2:6b:e5:d1:ea:2a:ca:2b:36:46:ca:6e:65:93:27:40:
        3f:17:d9:cb:5c:07:84:30:e6:d2:7c:4f:a3:2e:4c:e9:22:2d:
        3e:cb:0a:39:0d:72:6f:e2:2e:71:33:6f:ea:db:2d:58:39:0b:
        64:22:4c:d8:24:9a:4a:0a:f3:28:83:f4:fe:f2:7b:fb:cc:ae:
        90:91:47:2d:26:c0:0e:1d:0b:fe:5f:88:d6:00:d1:80:d8:cf:
        00:a0:9f:56:79:41:51:66:47:ed:e0:9a:6b:cc:3c:5b:5a:3d:
        b5:38:73:b6:b6:24:c4:0c:be:60:a5:2a:77:d0:da:72:4c:02:
        6e:53:af:73:63:93:30:51:3f:93:a3:57:66:7c:a4:92:4f:4f:
        f2:62:9b:cf:d5:1c:3e:b5:55:57:ce:f6:05:f9:4d:6b:50:4d:
        86:0c:7e:cd:54:6b:a1:40:36:a8:2f:fd:52:53:b3:61:15:04:
        b3:2d:10:91:e5:4e:75:37:9e:59:97:99:04:22:32:a7:e0:ec:
        c3:55:af:f9:3e:19:90:a0:0a:07:25:88:91:d9:89:2f:3e:b3:
        e9:a3:61:94:9d:6e:cb:09:08:cf:27:c2:f1:d0:46:74:06:9d:
        0f:07:c6:79:4f:dd:5a:8d:ab:25:ec:ff:c3:81:2f:8f:bb:f3:
        ef:45:06:97
-----BEGIN CERTIFICATE-----
MIIDVjCCAj6gAwIBAgIQf4utQ4wI7e+NRU3nkMJdbDANBgkqhkiG9w0BAQsFADAV
MRMwEQYDVQQDDApQcm9qZXQtdnBuMB4XDTI1MDgwNDEyNTUzNVoXDTI3MTEwNzEy
NTUzNVowFTETMBEGA1UEAwwKUHJvamV0LXZwbjCCASIwDQYJKoZIhvcNAQEBBQAD
ggEPADCCAQoCggEBAJIzp2SxcvGfGmuY2+omx7nColG5huZjtLp/d26aUOpCLuhw
ZDzUAt75b2hqlNXcLHJqPAmryejNaqplREoJ2RvRBEOcwC3VOZm57nqOi1NmfCJ+
4tMh81iiqcYDCGI0nIZ84FEmasL179pOZCwMCiuAhW/4s0+0GBx0LqBSrYmquBDE
DgL9iMZ4Sk5XUdWcZGtyD1k9kcRuTXN7PfMqR1gcFSQlJ4q+LUa0CraY8zLhe6W2
zbb8DM+OrVvnfFii63lP8vDynWlcou4waCtlGtGCct40Ua/5jzqzq18Zbjd4QTMT
uGbM1GkIRais2Try0udWtm0lxTYewQQ1kG9xkoECAwEAAaOBoTCBnjAJBgNVHRME
AjAAMB0GA1UdDgQWBBRExoZWJwgRtfe/Cj4MGXZhPwtxijBQBgNVHSMESTBHgBSD
AdLwA+NYgv5uzWjhd8XL09n7UaEZpBcwFTETMBEGA1UEAwwKUHJvamV0LXZwboIU
a5ekzBW61awQGvy72yBF7K6nnC0wEwYDVR0lBAwwCgYIKwYBBQUHAwIwCwYDVR0P
BAQDAgeAMA0GCSqGSIb3DQEBCwUAA4IBAQB3L/Jr5dHqKsorNkbKbmWTJ0A/F9nL
XAeEMObSfE+jLkzpIi0+ywo5DXJv4i5xM2/q2y1YOQtkIkzYJJpKCvMog/T+8nv7
zK6QkUctJsAOHQv+X4jWANGA2M8AoJ9WeUFRZkft4JprzDxbWj21OHO2tiTEDL5g
pSp30NpyTAJuU69zY5MwUT+To1dmfKSST0/yYpvP1Rw+tVVXzvYF+U1rUE2GDH7N
VGuhQDaoL/1SU7NhFQSzLRCR5U51N55Zl5kEIjKn4OzDVa/5PhmQoAoHJYiR2Ykv
PrPpo2GUnW7LCQjPJ8Lx0EZ0Bp0PB8Z5T91ajasl7P/DgS+Pu/PvRQaX
-----END CERTIFICATE-----
