Certificate:
    Data:
        Version: 3 (0x2)
        Serial Number:
            17:4b:5f:c8:13:c5:69:67:cb:6d:94:de:92:c5:41:50
        Signature Algorithm: sha256WithRSAEncryption
        Issuer: CN=Projet-vpn
        Validity
            Not Before: Aug  4 12:08:13 2025 GMT
            Not After : Nov  7 12:08:13 2027 GMT
        Subject: CN=Projet-vpn
        Subject Public Key Info:
            Public Key Algorithm: rsaEncryption
                Public-Key: (2048 bit)
                Modulus:
                    00:a1:9d:b6:9a:a9:c1:9e:c6:b8:7a:28:23:aa:00:
                    6f:60:1a:a0:88:f4:4e:e5:be:8f:5a:09:62:06:12:
                    75:fa:5e:01:38:d6:22:f4:47:e4:b5:91:ff:e8:0b:
                    1f:af:51:68:f5:42:06:7a:26:c9:c2:fa:af:f6:e1:
                    a5:ab:f6:b1:e5:1f:55:f9:89:94:03:07:57:8d:38:
                    3d:22:cb:b3:87:ac:72:4b:8a:55:1a:3a:fd:d4:3d:
                    92:69:ff:6b:94:46:73:f6:54:55:dc:3c:f2:5c:bc:
                    85:72:25:b9:ea:c0:ab:26:5f:57:d8:95:d8:29:44:
                    d0:61:95:8e:83:12:f8:10:e3:c0:f7:88:48:e1:b0:
                    ae:ed:2f:0e:ba:2a:9c:22:82:0e:9e:0d:d5:01:36:
                    c8:14:a6:15:1b:e3:e7:32:eb:77:06:83:ca:7f:10:
                    65:63:5e:3c:f4:69:1a:d0:0d:50:00:c4:f6:f4:7e:
                    5a:f6:1a:9f:f9:bb:20:9d:9d:7e:da:a4:8b:54:86:
                    36:65:a4:9a:16:12:4f:9d:16:3a:ec:24:3b:e2:97:
                    c7:32:60:bc:1c:fe:18:ec:54:70:31:f6:c6:60:58:
                    7a:b7:d3:0d:9f:c3:09:3a:0d:57:e4:15:a6:0e:c4:
                    3a:72:75:8f:a5:12:52:20:47:90:94:7f:30:34:ef:
                    6d:d3
                Exponent: 65537 (0x10001)
        X509v3 extensions:
            X509v3 Basic Constraints: 
                CA:FALSE
            X509v3 Subject Key Identifier: 
                F2:21:5A:D0:3F:E5:80:A9:0F:6A:93:F0:D4:83:A8:54:CA:7D:EA:FA
            X509v3 Authority Key Identifier: 
                keyid:83:01:D2:F0:03:E3:58:82:FE:6E:CD:68:E1:77:C5:CB:D3:D9:FB:51
                DirName:/CN=Projet-vpn
                serial:6B:97:A4:CC:15:BA:D5:AC:10:1A:FC:BB:DB:20:45:EC:AE:A7:9C:2D
            X509v3 Extended Key Usage: 
                TLS Web Client Authentication
            X509v3 Key Usage: 
                Digital Signature
    Signature Algorithm: sha256WithRSAEncryption
    Signature Value:
        0e:5f:8f:e5:a6:0e:7c:fd:2f:3b:1b:a4:08:a7:fa:6c:49:d0:
        4a:3a:09:40:a2:4d:5f:ed:18:6e:67:d9:29:f0:ce:4a:ec:ea:
        3a:3c:ef:7d:f9:35:42:5f:e4:60:9a:19:b1:f2:48:08:9f:de:
        a6:6b:d2:a8:8d:d5:ce:32:f1:34:75:77:fa:e3:ab:be:5d:83:
        87:4e:13:e6:33:a1:4f:a1:d4:1b:9b:47:51:a4:c5:4f:1b:35:
        da:05:84:79:5c:79:58:6c:b8:7d:a2:fe:b2:85:3a:00:34:67:
        7b:dd:56:24:5b:2b:6a:6b:39:64:cb:d2:af:41:a2:ad:78:b5:
        3a:72:c5:4c:b4:ea:8d:e3:ca:17:b1:84:10:24:01:d4:01:e8:
        a9:cf:a4:fc:e2:64:d7:43:94:53:56:69:1d:71:16:0f:37:05:
        51:e4:f4:f4:43:5b:0a:ba:25:1f:06:7e:06:91:1f:5d:15:43:
        ef:65:02:19:7f:b0:3e:7f:83:bd:2d:9b:3b:ea:ff:0f:31:7e:
        1d:21:21:df:df:0b:56:82:c7:da:e3:a8:ef:ec:ee:89:20:2a:
        25:19:07:a7:ed:2b:a4:c6:04:02:a9:cd:1a:5d:ea:93:7f:a8:
        60:6d:69:40:8c:e2:17:64:37:51:de:13:d3:71:8b:d2:9c:16:
        5b:be:1b:14
-----BEGIN CERTIFICATE-----
MIIDVjCCAj6gAwIBAgIQF0tfyBPFaWfLbZTeksVBUDANBgkqhkiG9w0BAQsFADAV
MRMwEQYDVQQDDApQcm9qZXQtdnBuMB4XDTI1MDgwNDEyMDgxM1oXDTI3MTEwNzEy
MDgxM1owFTETMBEGA1UEAwwKUHJvamV0LXZwbjCCASIwDQYJKoZIhvcNAQEBBQAD
ggEPADCCAQoCggEBAKGdtpqpwZ7GuHooI6oAb2AaoIj0TuW+j1oJYgYSdfpeATjW
IvRH5LWR/+gLH69RaPVCBnomycL6r/bhpav2seUfVfmJlAMHV404PSLLs4esckuK
VRo6/dQ9kmn/a5RGc/ZUVdw88ly8hXIluerAqyZfV9iV2ClE0GGVjoMS+BDjwPeI
SOGwru0vDroqnCKCDp4N1QE2yBSmFRvj5zLrdwaDyn8QZWNePPRpGtANUADE9vR+
WvYan/m7IJ2dftqki1SGNmWkmhYST50WOuwkO+KXxzJgvBz+GOxUcDH2xmBYerfT
DZ/DCToNV+QVpg7EOnJ1j6USUiBHkJR/MDTvbdMCAwEAAaOBoTCBnjAJBgNVHRME
AjAAMB0GA1UdDgQWBBTyIVrQP+WAqQ9qk/DUg6hUyn3q+jBQBgNVHSMESTBHgBSD
AdLwA+NYgv5uzWjhd8XL09n7UaEZpBcwFTETMBEGA1UEAwwKUHJvamV0LXZwboIU
a5ekzBW61awQGvy72yBF7K6nnC0wEwYDVR0lBAwwCgYIKwYBBQUHAwIwCwYDVR0P
BAQDAgeAMA0GCSqGSIb3DQEBCwUAA4IBAQAOX4/lpg58/S87G6QIp/psSdBKOglA
ok1f7RhuZ9kp8M5K7Oo6PO99+TVCX+Rgmhmx8kgIn96ma9KojdXOMvE0dXf646u+
XYOHThPmM6FPodQbm0dRpMVPGzXaBYR5XHlYbLh9ov6yhToANGd73VYkWytqazlk
y9KvQaKteLU6csVMtOqN48oXsYQQJAHUAeipz6T84mTXQ5RTVmkdcRYPNwVR5PT0
Q1sKuiUfBn4GkR9dFUPvZQIZf7A+f4O9LZs76v8PMX4dISHf3wtWgsfa46jv7O6J
IColGQen7SukxgQCqc0aXeqTf6hgbWlAjOIXZDdR3hPTcYvSnBZbvhsU
-----END CERTIFICATE-----
